; Function Attrs: nounwind sspstrong uwtable
define internal void @prop_pmu_num_get(ptr noundef %obj, ptr noundef %v, ptr noundef %name, ptr readnone captures(none) %opaque, ptr noundef %errp) #3 {
entry:
  %pmu_num = alloca i8, align 1
  %call.i = tail call ptr @object_dynamic_cast_assert(ptr noundef %obj, ptr noundef nonnull @.str.250, ptr noundef nonnull @.str.282, i32 noundef 46, ptr noundef nonnull @__func__.RISCV_CPU) #14
  %pmu_mask = getelementptr inbounds nuw i8, ptr %call.i, i64 15428
  %0 = load i32, ptr %pmu_mask, align 4
  %1 = tail call range(i32 0, 33) i32 @llvm.ctpop.i32(i32 %0)
  %conv = trunc nuw nsw i32 %1 to i8
  store i8 %conv, ptr %pmu_num, align 1
  %call2 = call zeroext i1 @visit_type_uint8(ptr noundef %v, ptr noundef %name, ptr noundef nonnull %pmu_num, ptr noundef %errp) #14
  ret void
}